; ModuleID = '31/1163.c'
source_filename = "31/1163.c"
target datalayout = "e-m:e-p270:32:32-p271:32:32-p272:64:64-i64:64-f80:128-n8:16:32:64-S128"
target triple = "x86_64-pc-linux-gnu"

%struct.student = type { %struct.student*, [500 x i8] }

@.str = private unnamed_addr constant [4 x i8] c"end\00", align 1
@.str.1 = private unnamed_addr constant [4 x i8] c"%s\0A\00", align 1

; Function Attrs: noinline nounwind uwtable
define dso_local void @main() #0 {
  %1 = alloca i32, align 4
  %2 = alloca %struct.student*, align 8
  %3 = alloca %struct.student*, align 8
  %4 = alloca %struct.student*, align 8
  store i32 0, i32* %1, align 4
  %5 = call noalias i8* @malloc(i64 100) #4
  %6 = bitcast i8* %5 to %struct.student*
  store %struct.student* %6, %struct.student** %2, align 8
  br label %7

7:                                                ; preds = %28, %0
  %8 = load %struct.student*, %struct.student** %2, align 8
  %9 = getelementptr inbounds %struct.student, %struct.student* %8, i32 0, i32 1
  %10 = getelementptr inbounds [500 x i8], [500 x i8]* %9, i64 0, i64 0
  %11 = call i32 (i8*, ...) bitcast (i32 (...)* @gets to i32 (i8*, ...)*)(i8* %10)
  %12 = sext i32 %11 to i64
  %13 = inttoptr i64 %12 to i8*
  %14 = call i32 @strcmp(i8* %13, i8* getelementptr inbounds ([4 x i8], [4 x i8]* @.str, i64 0, i64 0)) #5
  %15 = icmp ne i32 %14, 0
  br i1 %15, label %16, label %32

16:                                               ; preds = %7
  %17 = load i32, i32* %1, align 4
  %18 = add nsw i32 %17, 1
  store i32 %18, i32* %1, align 4
  %19 = load i32, i32* %1, align 4
  %20 = icmp eq i32 %19, 1
  br i1 %20, label %21, label %24

21:                                               ; preds = %16
  %22 = load %struct.student*, %struct.student** %2, align 8
  %23 = getelementptr inbounds %struct.student, %struct.student* %22, i32 0, i32 0
  store %struct.student* null, %struct.student** %23, align 8
  br label %28

24:                                               ; preds = %16
  %25 = load %struct.student*, %struct.student** %3, align 8
  %26 = load %struct.student*, %struct.student** %2, align 8
  %27 = getelementptr inbounds %struct.student, %struct.student* %26, i32 0, i32 0
  store %struct.student* %25, %struct.student** %27, align 8
  br label %28

28:                                               ; preds = %24, %21
  %29 = load %struct.student*, %struct.student** %2, align 8
  store %struct.student* %29, %struct.student** %3, align 8
  %30 = call noalias i8* @malloc(i64 100) #4
  %31 = bitcast i8* %30 to %struct.student*
  store %struct.student* %31, %struct.student** %2, align 8
  br label %7

32:                                               ; preds = %7
  %33 = load %struct.student*, %struct.student** %3, align 8
  store %struct.student* %33, %struct.student** %4, align 8
  br label %34

34:                                               ; preds = %42, %32
  %35 = load %struct.student*, %struct.student** %4, align 8
  %36 = getelementptr inbounds %struct.student, %struct.student* %35, i32 0, i32 1
  %37 = getelementptr inbounds [500 x i8], [500 x i8]* %36, i64 0, i64 0
  %38 = call i32 (i8*, ...) @printf(i8* getelementptr inbounds ([4 x i8], [4 x i8]* @.str.1, i64 0, i64 0), i8* %37)
  %39 = load %struct.student*, %struct.student** %4, align 8
  %40 = getelementptr inbounds %struct.student, %struct.student* %39, i32 0, i32 0
  %41 = load %struct.student*, %struct.student** %40, align 8
  store %struct.student* %41, %struct.student** %4, align 8
  br label %42

42:                                               ; preds = %34
  %43 = load %struct.student*, %struct.student** %4, align 8
  %44 = icmp ne %struct.student* %43, null
  br i1 %44, label %34, label %45

45:                                               ; preds = %42
  ret void
}

; Function Attrs: nounwind
declare dso_local noalias i8* @malloc(i64) #1

; Function Attrs: nounwind readonly
declare dso_local i32 @strcmp(i8*, i8*) #2

declare dso_local i32 @gets(...) #3

declare dso_local i32 @printf(i8*, ...) #3


!llvm.module.flags = !{!0}
!llvm.ident = !{!1}

!0 = !{i32 1, !"wchar_size", i32 4}
!1 = !{!"clang version 10.0.0-4ubuntu1 "}
